; Function Attrs: nounwind uwtable
define void @redisAsyncHandleWrite(ptr noundef %ac) local_unnamed_addr #0 {
entry:
  %flags2 = getelementptr inbounds i8, ptr %ac, i64 144
  %0 = load i32, ptr %flags2, align 8
  %and3 = and i32 %0, 2
  %tobool4.not = icmp eq i32 %and3, 0
  br i1 %tobool4.not, label %if.then, label %if.end11

if.then:                                          ; preds = %entry
  %call = tail call fastcc i32 @__redisAsyncHandleConnect(ptr noundef nonnull %ac), !range !7
  %cmp.not = icmp eq i32 %call, 0
  br i1 %cmp.not, label %if.end, label %return

if.end:                                           ; preds = %if.then
  %1 = load i32, ptr %flags2, align 8
  %and7 = and i32 %1, 2
  %tobool8.not = icmp eq i32 %and7, 0
  br i1 %tobool8.not, label %return, label %if.end11

if.end11:                                         ; preds = %if.end, %entry
  %2 = load ptr, ptr %ac, align 8
  %async_write = getelementptr inbounds i8, ptr %2, i64 24
  %3 = load ptr, ptr %async_write, align 8
  tail call void %3(ptr noundef nonnull %ac) #14
  br label %return

return:                                           ; preds = %if.end, %if.then, %if.end11
  ret void
}